target datalayout = "e-m:e-p270:32:32-p271:32:32-p272:64:64-i64:64-i128:128-f80:128-n8:16:32:64-S128"
target triple = "x86_64-pc-linux-gnu"

%struct.zsetopsrc = type { ptr, i32, i32, double, %union.anon }
%union.anon = type { %union._iterset }
%union._iterset = type { %struct.anon.1 }
%struct.anon.1 = type { ptr, ptr, ptr }

@.str.1 = private unnamed_addr constant [9 x i8] c"t_zset.c\00", align 1
@.str.9 = private unnamed_addr constant [28 x i8] c"Unknown sorted set encoding\00", align 1
@.str.37 = private unnamed_addr constant [21 x i8] c"Unknown set encoding\00", align 1
@.str.39 = private unnamed_addr constant [17 x i8] c"Unsupported type\00", align 1

; Function Attrs: nounwind uwtable
define dso_local void @zuiClearIterator(ptr noundef %0) #0 {
  %2 = alloca ptr, align 8
  %3 = alloca ptr, align 8
  %4 = alloca ptr, align 8
  store ptr %0, ptr %2, align 8, !tbaa !45
  %5 = load ptr, ptr %2, align 8, !tbaa !45
  %6 = getelementptr inbounds nuw %struct.zsetopsrc, ptr %5, i32 0, i32 0
  %7 = load ptr, ptr %6, align 8, !tbaa !171
  %8 = icmp eq ptr %7, null
  br i1 %8, label %9, label %10

9:                                                ; preds = %1
  br label %66

10:                                               ; preds = %1
  %11 = load ptr, ptr %2, align 8, !tbaa !45
  %12 = getelementptr inbounds nuw %struct.zsetopsrc, ptr %11, i32 0, i32 1
  %13 = load i32, ptr %12, align 8, !tbaa !173
  %14 = icmp eq i32 %13, 2
  br i1 %14, label %15, label %42

15:                                               ; preds = %10
  call void @llvm.lifetime.start.p0(i64 8, ptr %3) #12
  %16 = load ptr, ptr %2, align 8, !tbaa !45
  %17 = getelementptr inbounds nuw %struct.zsetopsrc, ptr %16, i32 0, i32 4
  store ptr %17, ptr %3, align 8, !tbaa !174
  %18 = load ptr, ptr %2, align 8, !tbaa !45
  %19 = getelementptr inbounds nuw %struct.zsetopsrc, ptr %18, i32 0, i32 2
  %20 = load i32, ptr %19, align 4, !tbaa !176
  %21 = icmp eq i32 %20, 6
  br i1 %21, label %22, label %23

22:                                               ; preds = %15
  br label %41

23:                                               ; preds = %15
  %24 = load ptr, ptr %2, align 8, !tbaa !45
  %25 = getelementptr inbounds nuw %struct.zsetopsrc, ptr %24, i32 0, i32 2
  %26 = load i32, ptr %25, align 4, !tbaa !176
  %27 = icmp eq i32 %26, 2
  br i1 %27, label %28, label %32

28:                                               ; preds = %23
  %29 = load ptr, ptr %3, align 8, !tbaa !174
  %30 = getelementptr inbounds nuw %struct.anon.1, ptr %29, i32 0, i32 1
  %31 = load ptr, ptr %30, align 8, !tbaa !86
  call void @dictReleaseIterator(ptr noundef %31)
  br label %40

32:                                               ; preds = %23
  %33 = load ptr, ptr %2, align 8, !tbaa !45
  %34 = getelementptr inbounds nuw %struct.zsetopsrc, ptr %33, i32 0, i32 2
  %35 = load i32, ptr %34, align 4, !tbaa !176
  %36 = icmp eq i32 %35, 11
  br i1 %36, label %37, label %38

37:                                               ; preds = %32
  br label %39

38:                                               ; preds = %32
  call void (ptr, i32, ptr, ...) @_serverPanic(ptr noundef @.str.1, i32 noundef 2178, ptr noundef @.str.37)
  call void @abort() #14
  unreachable

39:                                               ; preds = %37
  br label %40

40:                                               ; preds = %39, %28
  br label %41

41:                                               ; preds = %40, %22
  call void @llvm.lifetime.end.p0(i64 8, ptr %3) #12
  br label %66

42:                                               ; preds = %10
  %43 = load ptr, ptr %2, align 8, !tbaa !45
  %44 = getelementptr inbounds nuw %struct.zsetopsrc, ptr %43, i32 0, i32 1
  %45 = load i32, ptr %44, align 8, !tbaa !173
  %46 = icmp eq i32 %45, 3
  br i1 %46, label %47, label %64

47:                                               ; preds = %42
  call void @llvm.lifetime.start.p0(i64 8, ptr %4) #12
  %48 = load ptr, ptr %2, align 8, !tbaa !45
  %49 = getelementptr inbounds nuw %struct.zsetopsrc, ptr %48, i32 0, i32 4
  store ptr %49, ptr %4, align 8, !tbaa !177
  %50 = load ptr, ptr %2, align 8, !tbaa !45
  %51 = getelementptr inbounds nuw %struct.zsetopsrc, ptr %50, i32 0, i32 2
  %52 = load i32, ptr %51, align 4, !tbaa !176
  %53 = icmp eq i32 %52, 11
  br i1 %53, label %54, label %55

54:                                               ; preds = %47
  br label %63

55:                                               ; preds = %47
  %56 = load ptr, ptr %2, align 8, !tbaa !45
  %57 = getelementptr inbounds nuw %struct.zsetopsrc, ptr %56, i32 0, i32 2
  %58 = load i32, ptr %57, align 4, !tbaa !176
  %59 = icmp eq i32 %58, 7
  br i1 %59, label %60, label %61

60:                                               ; preds = %55
  br label %62

61:                                               ; preds = %55
  call void (ptr, i32, ptr, ...) @_serverPanic(ptr noundef @.str.1, i32 noundef 2187, ptr noundef @.str.9)
  call void @abort() #14
  unreachable

62:                                               ; preds = %60
  br label %63

63:                                               ; preds = %62, %54
  call void @llvm.lifetime.end.p0(i64 8, ptr %4) #12
  br label %65

64:                                               ; preds = %42
  call void (ptr, i32, ptr, ...) @_serverPanic(ptr noundef @.str.1, i32 noundef 2190, ptr noundef @.str.39)
  call void @abort() #14
  unreachable

65:                                               ; preds = %63
  br label %66

66:                                               ; preds = %9, %65, %41
  ret void
}