; Function Attrs: nounwind uwtable
define dso_local void @zuiClearIterator(ptr noundef readonly captures(none) %0) local_unnamed_addr #0 {
  %2 = load ptr, ptr %0, align 8, !tbaa !157
  %3 = icmp eq ptr %2, null
  br i1 %3, label %19, label %4

4:                                                ; preds = %1
  %5 = getelementptr inbounds nuw i8, ptr %0, i64 8
  %6 = load i32, ptr %5, align 8, !tbaa !159
  switch i32 %6, label %18 [
    i32 2, label %7
    i32 3, label %14
  ]

7:                                                ; preds = %4
  %8 = getelementptr inbounds nuw i8, ptr %0, i64 12
  %9 = load i32, ptr %8, align 4, !tbaa !160
  switch i32 %9, label %13 [
    i32 6, label %19
    i32 2, label %10
    i32 11, label %19
  ]

10:                                               ; preds = %7
  %11 = getelementptr inbounds nuw i8, ptr %0, i64 32
  %12 = load ptr, ptr %11, align 8, !tbaa !77
  tail call void @dictReleaseIterator(ptr noundef %12) #18
  br label %19

13:                                               ; preds = %7
  tail call void (ptr, i32, ptr, ...) @_serverPanic(ptr noundef nonnull @.str.1, i32 noundef 2178, ptr noundef nonnull @.str.37) #18
  tail call void @abort() #19
  unreachable

14:                                               ; preds = %4
  %15 = getelementptr inbounds nuw i8, ptr %0, i64 12
  %16 = load i32, ptr %15, align 4, !tbaa !160
  switch i32 %16, label %17 [
    i32 11, label %19
    i32 7, label %19
  ]

17:                                               ; preds = %14
  tail call void (ptr, i32, ptr, ...) @_serverPanic(ptr noundef nonnull @.str.1, i32 noundef 2187, ptr noundef nonnull @.str.9) #18
  tail call void @abort() #19
  unreachable

18:                                               ; preds = %4
  tail call void (ptr, i32, ptr, ...) @_serverPanic(ptr noundef nonnull @.str.1, i32 noundef 2190, ptr noundef nonnull @.str.39) #18
  tail call void @abort() #19
  unreachable

19:                                               ; preds = %14, %14, %10, %7, %7, %1
  ret void
}